Certificate:
    Data:
        Version: 3 (0x2)
        Serial Number: 1 (0x1)
    Signature Algorithm: sha256WithRSAEncryption
        Issuer: C=cn, ST=guangdong, L=shenzhen, O=youmai, OU=Develop Dept, CN=*.ihuxin.net/emailAddress=yoomaa@sina.com
        Validity
            Not Before: May 11 06:57:18 2017 GMT
            Not After : Apr 17 06:57:18 2117 GMT
        Subject: C=cn, ST=guangdong, O=youmai, OU=Develop Dept, CN=*.ihuxin.net/emailAddress=yoomaa@sina.com
        Subject Public Key Info:
            Public Key Algorithm: rsaEncryption
                Public-Key: (2048 bit)
                Modulus:
                    00:df:97:c8:32:22:b1:bb:7a:b6:53:ae:12:16:d0:
                    1c:76:8c:4b:e9:79:8c:26:98:34:bc:96:b2:a3:24:
                    76:79:23:8c:14:26:91:0a:09:46:47:db:56:43:81:
                    86:a7:a6:3d:81:1c:df:35:af:b0:ae:1f:96:bb:1a:
                    7b:30:b1:99:05:da:84:72:11:78:94:db:90:9e:9e:
                    07:0c:11:1f:3f:96:46:1f:3c:2d:6d:2d:cc:62:c1:
                    c9:69:b6:40:87:42:d3:e6:be:06:ab:c9:cd:43:a1:
                    b4:09:94:b3:a6:fc:f2:df:8b:30:97:e8:41:fc:0a:
                    cb:12:86:44:52:ac:66:e7:4b:00:63:5c:1e:a2:99:
                    31:17:b0:d5:c6:83:89:65:9d:db:83:9e:f6:cd:8f:
                    13:18:25:63:cc:4a:8d:eb:91:9b:5a:a7:a6:8a:54:
                    11:04:d1:d9:42:b1:7b:54:69:43:1a:21:48:72:ba:
                    55:ed:c2:ec:3d:de:a5:a8:f4:12:34:5e:b0:7d:81:
                    95:c0:bb:f7:9c:da:70:dc:6d:de:a4:15:d9:20:aa:
                    b0:ea:ea:d4:eb:04:0d:b4:b8:ad:90:f8:ea:bd:48:
                    16:35:27:34:9f:b1:96:ba:9e:db:9d:47:bb:f8:5d:
                    74:08:f6:e7:04:46:16:ec:44:26:8e:51:f2:bb:f7:
                    7d:65
                Exponent: 65537 (0x10001)
        X509v3 extensions:
            X509v3 Basic Constraints: 
                CA:FALSE
            Netscape Comment: 
                OpenSSL Generated Certificate
            X509v3 Subject Key Identifier: 
                C7:9F:56:A0:43:DC:37:59:EB:89:A3:F4:F3:16:96:82:9B:FC:40:9E
            X509v3 Authority Key Identifier: 
                keyid:66:7A:1B:51:F2:EE:FF:01:BF:BA:5A:AE:02:D5:8D:CD:06:88:D9:F1

    Signature Algorithm: sha256WithRSAEncryption
         40:1d:de:e3:08:32:94:c8:c7:17:d7:d7:df:ff:7a:2f:ed:54:
         fb:0f:df:55:17:23:b0:7a:e1:3d:b1:c0:55:34:20:35:6f:d7:
         42:cb:e8:92:a0:f9:de:75:85:0e:d9:b7:25:23:57:f7:a4:11:
         94:2b:5a:b4:59:e9:24:2e:d3:07:1e:df:35:0c:bc:8b:f4:9b:
         f0:fc:1b:c9:d9:82:bb:c4:1c:69:25:1a:99:f7:d9:30:09:f7:
         c7:ad:9a:c5:54:d1:e6:fd:05:db:ad:95:bb:6d:81:3f:af:e5:
         de:42:36:a9:1a:41:a7:bb:36:e0:44:08:b4:e9:37:a4:83:15:
         39:b7:83:5b:b2:9d:8b:c0:fe:1b:fc:bc:1c:5c:da:88:45:1a:
         d9:11:96:78:88:65:0d:bb:08:4b:40:4a:58:24:20:28:8f:c9:
         b6:13:c4:55:96:e6:5e:39:fe:bf:9c:cb:9f:99:98:c7:9b:ad:
         7a:8a:b0:72:ec:1d:84:07:2c:c9:58:14:5d:4c:fe:48:2a:64:
         23:72:da:92:5b:47:65:ff:61:d6:8e:35:fd:06:40:c3:fa:77:
         e6:bc:a1:49:5c:53:f9:b0:68:1b:41:08:21:e5:44:11:11:21:
         1f:1c:d3:57:90:6b:47:d6:29:7e:05:15:da:ba:b5:68:3b:d0:
         c9:12:43:8b
-----BEGIN CERTIFICATE-----
MIIEDTCCAvWgAwIBAgIBATANBgkqhkiG9w0BAQsFADCBkzELMAkGA1UEBhMCY24x
EjAQBgNVBAgMCWd1YW5nZG9uZzERMA8GA1UEBwwIc2hlbnpoZW4xDzANBgNVBAoM
BnlvdW1haTEVMBMGA1UECwwMRGV2ZWxvcCBEZXB0MRUwEwYDVQQDDAwqLmlodXhp
bi5uZXQxHjAcBgkqhkiG9w0BCQEWD3lvb21hYUBzaW5hLmNvbTAgFw0xNzA1MTEw
NjU3MThaGA8yMTE3MDQxNzA2NTcxOFowgYAxCzAJBgNVBAYTAmNuMRIwEAYDVQQI
DAlndWFuZ2RvbmcxDzANBgNVBAoMBnlvdW1haTEVMBMGA1UECwwMRGV2ZWxvcCBE
ZXB0MRUwEwYDVQQDDAwqLmlodXhpbi5uZXQxHjAcBgkqhkiG9w0BCQEWD3lvb21h
YUBzaW5hLmNvbTCCASIwDQYJKoZIhvcNAQEBBQADggEPADCCAQoCggEBAN+XyDIi
sbt6tlOuEhbQHHaMS+l5jCaYNLyWsqMkdnkjjBQmkQoJRkfbVkOBhqemPYEc3zWv
sK4flrsaezCxmQXahHIReJTbkJ6eBwwRHz+WRh88LW0tzGLByWm2QIdC0+a+BqvJ
zUOhtAmUs6b88t+LMJfoQfwKyxKGRFKsZudLAGNcHqKZMRew1caDiWWd24Oe9s2P
ExglY8xKjeuRm1qnpopUEQTR2UKxe1RpQxohSHK6Ve3C7D3epaj0EjResH2BlcC7
95zacNxt3qQV2SCqsOrq1OsEDbS4rZD46r1IFjUnNJ+xlrqe251Hu/hddAj25wRG
FuxEJo5R8rv3fWUCAwEAAaN7MHkwCQYDVR0TBAIwADAsBglghkgBhvhCAQ0EHxYd
T3BlblNTTCBHZW5lcmF0ZWQgQ2VydGlmaWNhdGUwHQYDVR0OBBYEFMefVqBD3DdZ
64mj9PMWloKb/ECeMB8GA1UdIwQYMBaAFGZ6G1Hy7v8Bv7pargLVjc0GiNnxMA0G
CSqGSIb3DQEBCwUAA4IBAQBAHd7jCDKUyMcX19ff/3ov7VT7D99VFyOweuE9scBV
NCA1b9dCy+iSoPnedYUO2bclI1f3pBGUK1q0WekkLtMHHt81DLyL9Jvw/BvJ2YK7
xBxpJRqZ99kwCffHrZrFVNHm/QXbrZW7bYE/r+XeQjapGkGnuzbgRAi06TekgxU5
t4Nbsp2LwP4b/LwcXNqIRRrZEZZ4iGUNuwhLQEpYJCAoj8m2E8RVluZeOf6/nMuf
mZjHm616irBy7B2EByzJWBRdTP5IKmQjctqSW0dl/2HWjjX9BkDD+nfmvKFJXFP5
sGgbQQgh5UQRESEfHNNXkGtH1il+BRXaurVoO9DJEkOL
-----END CERTIFICATE-----
